; Function Attrs: mustprogress nounwind uwtable
define void @_ZN9TimerListD2Ev(ptr noundef nonnull readonly align 8 captures(none) dereferenceable(24) %0) unnamed_addr #4 align 2 personality ptr @__gxx_personality_v0 {
  %2 = load ptr, ptr %0, align 8
  %3 = getelementptr inbounds nuw i8, ptr %0, i64 8
  %4 = load ptr, ptr %3, align 8
  %.not4.i.i.i.i = icmp eq ptr %2, %4
  br i1 %.not4.i.i.i.i, label %_ZSt8_DestroyIP10TimerGroupS0_EvT_S2_RSaIT0_E.exit.i, label %.lr.ph.i.i.i.i

.lr.ph.i.i.i.i:                                   ; preds = %1, %.lr.ph.i.i.i.i
  %.05.i.i.i.i = phi ptr [ %5, %.lr.ph.i.i.i.i ], [ %2, %1 ]
  tail call void @_ZN10TimerGroupD1Ev(ptr noundef nonnull align 8 dereferenceable(56) %.05.i.i.i.i) #15
  %5 = getelementptr inbounds nuw i8, ptr %.05.i.i.i.i, i64 56
  %.not.i.i.i.i = icmp eq ptr %5, %4
  br i1 %.not.i.i.i.i, label %_ZSt8_DestroyIP10TimerGroupS0_EvT_S2_RSaIT0_E.exitthread-pre-split.i, label %.lr.ph.i.i.i.i, !llvm.loop !4

_ZSt8_DestroyIP10TimerGroupS0_EvT_S2_RSaIT0_E.exitthread-pre-split.i: ; preds = %.lr.ph.i.i.i.i
  %.pr.i = load ptr, ptr %0, align 8
  br label %_ZSt8_DestroyIP10TimerGroupS0_EvT_S2_RSaIT0_E.exit.i

_ZSt8_DestroyIP10TimerGroupS0_EvT_S2_RSaIT0_E.exit.i: ; preds = %_ZSt8_DestroyIP10TimerGroupS0_EvT_S2_RSaIT0_E.exitthread-pre-split.i, %1
  %6 = phi ptr [ %.pr.i, %_ZSt8_DestroyIP10TimerGroupS0_EvT_S2_RSaIT0_E.exitthread-pre-split.i ], [ %2, %1 ]
  %.not.i.i.i = icmp eq ptr %6, null
  br i1 %.not.i.i.i, label %_ZNSt6vectorI10TimerGroupSaIS0_EED2Ev.exit, label %7

7:                                                ; preds = %_ZSt8_DestroyIP10TimerGroupS0_EvT_S2_RSaIT0_E.exit.i
  %8 = getelementptr inbounds nuw i8, ptr %0, i64 16
  %9 = load ptr, ptr %8, align 8
  %10 = ptrtoint ptr %9 to i64
  %11 = ptrtoint ptr %6 to i64
  %12 = sub i64 %10, %11
  tail call void @_ZdlPvm(ptr noundef nonnull %6, i64 noundef %12) #16
  br label %_ZNSt6vectorI10TimerGroupSaIS0_EED2Ev.exit

_ZNSt6vectorI10TimerGroupSaIS0_EED2Ev.exit:       ; preds = %_ZSt8_DestroyIP10TimerGroupS0_EvT_S2_RSaIT0_E.exit.i, %7
  ret void
}